target datalayout = "e-m:e-p270:32:32-p271:32:32-p272:64:64-i64:64-i128:128-f80:128-n8:16:32:64-S128"
target triple = "x86_64-pc-linux-gnu"

%class.QDialog = type { %class.QWidget }
%class.QWidget = type { %class.QObject, %class.QPaintDevice.base, ptr }
%class.QObject = type { ptr, %class.QScopedPointer }
%class.QScopedPointer = type { ptr }
%class.QPaintDevice.base = type <{ ptr, i16 }>
%class.SCTPGraphDialog = type { %class.QDialog, ptr, i16, ptr, i32, i32, %class.QList, %class.QList, %class.QList, %class.QList, %class.QList, %class.QList, %class.QList, %class.QList, %class.QList, %class.QList, %class.QList.0, %class.QList.0, %class.QList.0, %class.QList.0, %class.QList.0, %class.QList.4, i8, i32 }
%class.QList = type { %struct.QArrayDataPointer }
%struct.QArrayDataPointer = type { ptr, ptr, i64 }
%class.QList.0 = type { %struct.QArrayDataPointer.3 }
%struct.QArrayDataPointer.3 = type { ptr, ptr, i64 }
%class.QList.4 = type { %struct.QArrayDataPointer.7 }
%struct.QArrayDataPointer.7 = type { ptr, ptr, i64 }
%struct._sctp_assoc_info = type { i16, %struct._address, %struct._address, i16, i16, i32, i32, i32, i32, ptr, ptr, i16, i16, i16, i16, i32, i32, i32, i32, [8 x i8], i32, i32, i32, i32, i32, i32, i32, i32, i32, i32, i32, i32, i32, i32, i32, i32, i32, i32, i32, i32, i32, i32, i32, i8, i16, i16, i32, i32, i32, i32, i32, i32, i32, i32, i32, i32, ptr, ptr, ptr, ptr, ptr, ptr, ptr, ptr, ptr, ptr, ptr, ptr, i8, ptr, [256 x i32], [256 x i32], [256 x i32], ptr }
%struct._address = type { i32, i32, ptr, ptr }
%class.Ui_SCTPGraphDialog = type { ptr, ptr, ptr, ptr, ptr, ptr, ptr, ptr, ptr, ptr, ptr, ptr, ptr, ptr, ptr }
%class.QFlags.29 = type { i32 }
%class.QCustomPlot = type <{ %class.QWidget, ptr, ptr, ptr, ptr, ptr, %class.QRect, double, ptr, i8, [7 x i8], %class.QList.12, %class.QList.16, %class.QList.20, %class.QList.24, %class.QFlags.28, %class.QFlags.28, %class.QFlags.29, i32, i8, [7 x i8], %class.QBrush, %class.QPixmap, %class.QPixmap, i8, [3 x i8], i32, ptr, %class.QFlags.30, i32, i32, [4 x i8], ptr, i8, [7 x i8], %class.QList.31, %class.QPoint, i8, [7 x i8], %class.QPointer, %class.QPointer, %class.QVariant, %class.QVariant, i8, i8, [6 x i8], double, double, i32, %class.QFlags.28, i8, [7 x i8] }>
%class.QRect = type { i32, i32, i32, i32 }
%class.QList.12 = type { %struct.QArrayDataPointer.15 }
%struct.QArrayDataPointer.15 = type { ptr, ptr, i64 }
%class.QList.16 = type { %struct.QArrayDataPointer.19 }
%struct.QArrayDataPointer.19 = type { ptr, ptr, i64 }
%class.QList.20 = type { %struct.QArrayDataPointer.23 }
%struct.QArrayDataPointer.23 = type { ptr, ptr, i64 }
%class.QList.24 = type { %struct.QArrayDataPointer.27 }
%struct.QArrayDataPointer.27 = type { ptr, ptr, i64 }
%class.QBrush = type { %"class.std::unique_ptr" }
%"class.std::unique_ptr" = type { %"struct.std::__uniq_ptr_data" }
%"struct.std::__uniq_ptr_data" = type { %"class.std::__uniq_ptr_impl" }
%"class.std::__uniq_ptr_impl" = type { %"class.std::tuple" }
%"class.std::tuple" = type { %"struct.std::_Tuple_impl" }
%"struct.std::_Tuple_impl" = type { %"struct.std::_Head_base.10" }
%"struct.std::_Head_base.10" = type { ptr }
%class.QPixmap = type { %class.QPaintDevice.base, %class.QExplicitlySharedDataPointer }
%class.QExplicitlySharedDataPointer = type { ptr }
%class.QFlags.30 = type { i32 }
%class.QList.31 = type { %struct.QArrayDataPointer.34 }
%struct.QArrayDataPointer.34 = type { ptr, ptr, i64 }
%class.QPoint = type { i32, i32 }
%class.QPointer = type { %class.QWeakPointer }
%class.QWeakPointer = type { ptr, ptr }
%class.QVariant = type { %"struct.QVariant::Private" }
%"struct.QVariant::Private" = type { %union.anon, i64 }
%union.anon = type { ptr, [16 x i8] }
%class.QFlags.28 = type { i32 }

; Function Attrs: mustprogress null_pointer_is_valid sspstrong uwtable
define void @_ZN15SCTPGraphDialog23on_pushButton_4_clickedEv(ptr noundef align 8 dereferenceable_or_null(464) %0) #0 align 2 {
  %2 = alloca ptr, align 8
  %3 = alloca ptr, align 8
  %4 = alloca i32, align 4
  store ptr %0, ptr %2, align 8
  %5 = load ptr, ptr %2, align 8
  call void @llvm.lifetime.start.p0(i64 8, ptr %3) #16
  %6 = getelementptr inbounds nuw %class.SCTPGraphDialog, ptr %5, i32 0, i32 2
  %7 = load i16, ptr %6, align 8
  %8 = call noundef ptr @_ZN22SCTPAssocAnalyseDialog9findAssocEP7QWidgett(ptr noundef %5, i16 noundef zeroext %7)
  store ptr %8, ptr %3, align 8
  %9 = load ptr, ptr %3, align 8
  %10 = icmp ne ptr %9, null
  br i1 %10, label %12, label %11

11:                                               ; preds = %1
  store i32 1, ptr %4, align 4
  br label %106

12:                                               ; preds = %1
  %13 = getelementptr inbounds nuw %class.SCTPGraphDialog, ptr %5, i32 0, i32 1
  %14 = load ptr, ptr %13, align 8
  %15 = getelementptr inbounds nuw %class.Ui_SCTPGraphDialog, ptr %14, i32 0, i32 3
  %16 = load ptr, ptr %15, align 8
  %17 = getelementptr inbounds nuw %class.QCustomPlot, ptr %16, i32 0, i32 1
  %18 = load ptr, ptr %17, align 8
  %19 = load ptr, ptr %3, align 8
  %20 = getelementptr inbounds nuw %struct._sctp_assoc_info, ptr %19, i32 0, i32 46
  %21 = load i32, ptr %20, align 4
  %22 = uitofp i32 %21 to double
  %23 = load ptr, ptr %3, align 8
  %24 = getelementptr inbounds nuw %struct._sctp_assoc_info, ptr %23, i32 0, i32 48
  %25 = load i32, ptr %24, align 4
  %26 = add i32 %25, 1
  %27 = uitofp i32 %26 to double
  call void @_ZN7QCPAxis8setRangeEdd(ptr noundef align 8 dereferenceable_or_null(472) %18, double noundef %22, double noundef %27)
  %28 = getelementptr inbounds nuw %class.SCTPGraphDialog, ptr %5, i32 0, i32 22
  %29 = load i8, ptr %28, align 8, !range !6, !noundef !7
  %30 = trunc i8 %29 to i1
  br i1 %30, label %31, label %66

31:                                               ; preds = %12
  %32 = getelementptr inbounds nuw %class.SCTPGraphDialog, ptr %5, i32 0, i32 5
  %33 = load i32, ptr %32, align 4
  %34 = icmp eq i32 %33, 1
  br i1 %34, label %35, label %50

35:                                               ; preds = %31
  %36 = getelementptr inbounds nuw %class.SCTPGraphDialog, ptr %5, i32 0, i32 1
  %37 = load ptr, ptr %36, align 8
  %38 = getelementptr inbounds nuw %class.Ui_SCTPGraphDialog, ptr %37, i32 0, i32 3
  %39 = load ptr, ptr %38, align 8
  %40 = getelementptr inbounds nuw %class.QCustomPlot, ptr %39, i32 0, i32 2
  %41 = load ptr, ptr %40, align 8
  %42 = load ptr, ptr %3, align 8
  %43 = getelementptr inbounds nuw %struct._sctp_assoc_info, ptr %42, i32 0, i32 52
  %44 = load i32, ptr %43, align 4
  %45 = load ptr, ptr %3, align 8
  %46 = getelementptr inbounds nuw %struct._sctp_assoc_info, ptr %45, i32 0, i32 50
  %47 = load i32, ptr %46, align 4
  %48 = sub i32 %44, %47
  %49 = uitofp i32 %48 to double
  call void @_ZN7QCPAxis8setRangeEdd(ptr noundef align 8 dereferenceable_or_null(472) %41, double noundef 0.000000e+00, double noundef %49)
  br label %65

50:                                               ; preds = %31
  %51 = getelementptr inbounds nuw %class.SCTPGraphDialog, ptr %5, i32 0, i32 1
  %52 = load ptr, ptr %51, align 8
  %53 = getelementptr inbounds nuw %class.Ui_SCTPGraphDialog, ptr %52, i32 0, i32 3
  %54 = load ptr, ptr %53, align 8
  %55 = getelementptr inbounds nuw %class.QCustomPlot, ptr %54, i32 0, i32 2
  %56 = load ptr, ptr %55, align 8
  %57 = load ptr, ptr %3, align 8
  %58 = getelementptr inbounds nuw %struct._sctp_assoc_info, ptr %57, i32 0, i32 53
  %59 = load i32, ptr %58, align 8
  %60 = load ptr, ptr %3, align 8
  %61 = getelementptr inbounds nuw %struct._sctp_assoc_info, ptr %60, i32 0, i32 51
  %62 = load i32, ptr %61, align 8
  %63 = sub i32 %59, %62
  %64 = uitofp i32 %63 to double
  call void @_ZN7QCPAxis8setRangeEdd(ptr noundef align 8 dereferenceable_or_null(472) %56, double noundef 0.000000e+00, double noundef %64)
  br label %65

65:                                               ; preds = %50, %35
  br label %101

66:                                               ; preds = %12
  %67 = getelementptr inbounds nuw %class.SCTPGraphDialog, ptr %5, i32 0, i32 5
  %68 = load i32, ptr %67, align 4
  %69 = icmp eq i32 %68, 1
  br i1 %69, label %70, label %85

70:                                               ; preds = %66
  %71 = getelementptr inbounds nuw %class.SCTPGraphDialog, ptr %5, i32 0, i32 1
  %72 = load ptr, ptr %71, align 8
  %73 = getelementptr inbounds nuw %class.Ui_SCTPGraphDialog, ptr %72, i32 0, i32 3
  %74 = load ptr, ptr %73, align 8
  %75 = getelementptr inbounds nuw %class.QCustomPlot, ptr %74, i32 0, i32 2
  %76 = load ptr, ptr %75, align 8
  %77 = load ptr, ptr %3, align 8
  %78 = getelementptr inbounds nuw %struct._sctp_assoc_info, ptr %77, i32 0, i32 50
  %79 = load i32, ptr %78, align 4
  %80 = uitofp i32 %79 to double
  %81 = load ptr, ptr %3, align 8
  %82 = getelementptr inbounds nuw %struct._sctp_assoc_info, ptr %81, i32 0, i32 52
  %83 = load i32, ptr %82, align 4
  %84 = uitofp i32 %83 to double
  call void @_ZN7QCPAxis8setRangeEdd(ptr noundef align 8 dereferenceable_or_null(472) %76, double noundef %80, double noundef %84)
  br label %100

85:                                               ; preds = %66
  %86 = getelementptr inbounds nuw %class.SCTPGraphDialog, ptr %5, i32 0, i32 1
  %87 = load ptr, ptr %86, align 8
  %88 = getelementptr inbounds nuw %class.Ui_SCTPGraphDialog, ptr %87, i32 0, i32 3
  %89 = load ptr, ptr %88, align 8
  %90 = getelementptr inbounds nuw %class.QCustomPlot, ptr %89, i32 0, i32 2
  %91 = load ptr, ptr %90, align 8
  %92 = load ptr, ptr %3, align 8
  %93 = getelementptr inbounds nuw %struct._sctp_assoc_info, ptr %92, i32 0, i32 51
  %94 = load i32, ptr %93, align 8
  %95 = uitofp i32 %94 to double
  %96 = load ptr, ptr %3, align 8
  %97 = getelementptr inbounds nuw %struct._sctp_assoc_info, ptr %96, i32 0, i32 53
  %98 = load i32, ptr %97, align 8
  %99 = uitofp i32 %98 to double
  call void @_ZN7QCPAxis8setRangeEdd(ptr noundef align 8 dereferenceable_or_null(472) %91, double noundef %95, double noundef %99)
  br label %100

100:                                              ; preds = %85, %70
  br label %101

101:                                              ; preds = %100, %65
  %102 = getelementptr inbounds nuw %class.SCTPGraphDialog, ptr %5, i32 0, i32 1
  %103 = load ptr, ptr %102, align 8
  %104 = getelementptr inbounds nuw %class.Ui_SCTPGraphDialog, ptr %103, i32 0, i32 3
  %105 = load ptr, ptr %104, align 8
  call void @_ZN11QCustomPlot6replotENS_15RefreshPriorityE(ptr noundef align 8 dereferenceable_or_null(513) %105, i32 noundef 2)
  store i32 0, ptr %4, align 4
  br label %106

106:                                              ; preds = %101, %11
  call void @llvm.lifetime.end.p0(i64 8, ptr %3) #16
  %107 = load i32, ptr %4, align 4
  switch i32 %107, label %109 [
    i32 0, label %108
    i32 1, label %108
  ]

108:                                              ; preds = %106, %106
  ret void

109:                                              ; preds = %106
  unreachable
}