; Function Attrs: mustprogress null_pointer_is_valid sspstrong uwtable
define void @_ZN15SCTPGraphDialog23on_pushButton_4_clickedEv(ptr noundef align 8 dereferenceable_or_null(464) %0) local_unnamed_addr #0 align 2 {
  %2 = getelementptr inbounds nuw i8, ptr %0, i64 48
  %3 = load i16, ptr %2, align 8
  %4 = tail call noundef ptr @_ZN22SCTPAssocAnalyseDialog9findAssocEP7QWidgett(ptr noundef %0, i16 noundef zeroext %3)
  %.not = icmp eq ptr %4, null
  br i1 %.not, label %61, label %5

5:                                                ; preds = %1
  %6 = getelementptr inbounds nuw i8, ptr %0, i64 40
  %7 = load ptr, ptr %6, align 8
  %8 = getelementptr inbounds nuw i8, ptr %7, i64 24
  %9 = load ptr, ptr %8, align 8
  %10 = getelementptr inbounds nuw i8, ptr %9, i64 40
  %11 = load ptr, ptr %10, align 8
  %12 = getelementptr inbounds nuw i8, ptr %4, i64 228
  %13 = load i32, ptr %12, align 4
  %14 = uitofp i32 %13 to double
  %15 = getelementptr inbounds nuw i8, ptr %4, i64 236
  %16 = load i32, ptr %15, align 4
  %17 = add i32 %16, 1
  %18 = uitofp i32 %17 to double
  tail call void @_ZN7QCPAxis8setRangeEdd(ptr noundef align 8 dereferenceable_or_null(472) %11, double noundef %14, double noundef %18)
  %19 = getelementptr inbounds nuw i8, ptr %0, i64 456
  %20 = load i8, ptr %19, align 8, !range !12, !noundef !13
  %21 = trunc nuw i8 %20 to i1
  %22 = getelementptr inbounds nuw i8, ptr %0, i64 68
  %23 = load i32, ptr %22, align 4
  %24 = icmp eq i32 %23, 1
  %25 = load ptr, ptr %6, align 8
  %26 = getelementptr inbounds nuw i8, ptr %25, i64 24
  %27 = load ptr, ptr %26, align 8
  %28 = getelementptr inbounds nuw i8, ptr %27, i64 48
  %29 = load ptr, ptr %28, align 8
  br i1 %21, label %30, label %43

30:                                               ; preds = %5
  br i1 %24, label %31, label %37

31:                                               ; preds = %30
  %32 = getelementptr inbounds nuw i8, ptr %4, i64 252
  %33 = load i32, ptr %32, align 4
  %34 = getelementptr inbounds nuw i8, ptr %4, i64 244
  %35 = load i32, ptr %34, align 4
  %36 = sub i32 %33, %35
  br label %56

37:                                               ; preds = %30
  %38 = getelementptr inbounds nuw i8, ptr %4, i64 256
  %39 = load i32, ptr %38, align 8
  %40 = getelementptr inbounds nuw i8, ptr %4, i64 248
  %41 = load i32, ptr %40, align 8
  %42 = sub i32 %39, %41
  br label %56

43:                                               ; preds = %5
  br i1 %24, label %44, label %50

44:                                               ; preds = %43
  %45 = getelementptr inbounds nuw i8, ptr %4, i64 244
  %46 = load i32, ptr %45, align 4
  %47 = uitofp i32 %46 to double
  %48 = getelementptr inbounds nuw i8, ptr %4, i64 252
  %49 = load i32, ptr %48, align 4
  br label %56

50:                                               ; preds = %43
  %51 = getelementptr inbounds nuw i8, ptr %4, i64 248
  %52 = load i32, ptr %51, align 8
  %53 = uitofp i32 %52 to double
  %54 = getelementptr inbounds nuw i8, ptr %4, i64 256
  %55 = load i32, ptr %54, align 8
  br label %56

56:                                               ; preds = %44, %50, %31, %37
  %.sink13 = phi i32 [ %49, %44 ], [ %55, %50 ], [ %36, %31 ], [ %42, %37 ]
  %.sink = phi double [ %47, %44 ], [ %53, %50 ], [ 0.000000e+00, %31 ], [ 0.000000e+00, %37 ]
  %57 = uitofp i32 %.sink13 to double
  tail call void @_ZN7QCPAxis8setRangeEdd(ptr noundef align 8 dereferenceable_or_null(472) %29, double noundef %.sink, double noundef %57)
  %58 = load ptr, ptr %6, align 8
  %59 = getelementptr inbounds nuw i8, ptr %58, i64 24
  %60 = load ptr, ptr %59, align 8
  tail call void @_ZN11QCustomPlot6replotENS_15RefreshPriorityE(ptr noundef align 8 dereferenceable_or_null(513) %60, i32 noundef 2)
  br label %61

61:                                               ; preds = %1, %56
  ret void
}